; Function Attrs: mustprogress uwtable
define void @_ZN18OpenImageIO_v2_6_011thread_poolC2Ei(ptr noundef nonnull align 8 dereferenceable(8) %this, i32 noundef %nthreads) unnamed_addr #4 align 2 personality ptr @__gxx_personality_v0 {
entry:
  %call = tail call noalias noundef nonnull dereferenceable(272) ptr @_Znwm(i64 noundef 272) #26
  invoke void @_ZN18OpenImageIO_v2_6_011thread_pool4ImplC2Eii(ptr noundef nonnull align 8 dereferenceable(265) %call, i32 noundef %nthreads, i32 noundef 1024)
          to label %invoke.cont unwind label %lpad

invoke.cont:                                      ; preds = %entry
  store ptr %call, ptr %this, align 8
  invoke void @_ZN18OpenImageIO_v2_6_011thread_pool4Impl6resizeEi(ptr noundef nonnull align 8 dereferenceable(265) %call, i32 noundef %nthreads)
          to label %invoke.cont3 unwind label %lpad2

invoke.cont3:                                     ; preds = %invoke.cont
  ret void

lpad:                                             ; preds = %entry
  %0 = landingpad { ptr, i32 }
          cleanup
  tail call void @_ZdlPv(ptr noundef nonnull %call) #27
  br label %eh.resume

lpad2:                                            ; preds = %invoke.cont
  %1 = landingpad { ptr, i32 }
          cleanup
  tail call void @_ZNSt10unique_ptrIN18OpenImageIO_v2_6_011thread_pool4ImplESt14default_deleteIS2_EED2Ev(ptr noundef nonnull align 8 dereferenceable(8) %this) #20
  br label %eh.resume

eh.resume:                                        ; preds = %lpad2, %lpad
  %.pn = phi { ptr, i32 } [ %1, %lpad2 ], [ %0, %lpad ]
  resume { ptr, i32 } %.pn
}